target datalayout = "e-m:e-p270:32:32-p271:32:32-p272:64:64-i64:64-i128:128-f80:128-n8:16:32:64-S128"
target triple = "x86_64-pc-linux-gnu"

%struct.OnigEncodingTypeST = type { ptr, ptr, i32, i32, ptr, ptr, ptr, ptr, ptr, ptr, ptr, ptr, ptr, ptr, ptr, ptr, ptr, ptr, ptr, i32, i32, i32 }
%struct.__va_list_tag = type { i32, i32, ptr, ptr }

@OnigEncodingASCII = external global %struct.OnigEncodingTypeST, align 8
@.str.81 = private unnamed_addr constant [4 x i8] c": /\00", align 1
@.str.83 = private unnamed_addr constant [7 x i8] c"\\x%02x\00", align 1

; Function Attrs: nounwind uwtable
define internal void @sprint_byte_with_x(ptr noundef %0, i32 noundef %1) #0 {
  %3 = alloca ptr, align 8
  %4 = alloca i32, align 4
  store ptr %0, ptr %3, align 8, !tbaa !8
  store i32 %1, ptr %4, align 4, !tbaa !4
  %5 = load ptr, ptr %3, align 8, !tbaa !8
  %6 = load i32, ptr %4, align 4, !tbaa !4
  %7 = and i32 %6, 255
  %8 = call i32 (ptr, i64, ptr, ...) @snprintf(ptr noundef %5, i64 noundef 5, ptr noundef @.str.83, i32 noundef %7) #6
  ret void
}

; Function Attrs: nounwind uwtable
define dso_local void @onig_snprintf_with_pattern(ptr noundef %0, i32 noundef %1, ptr noundef %2, ptr noundef %3, ptr noundef %4, ptr noundef %5, ...) #0 {
  %7 = alloca ptr, align 8
  %8 = alloca i32, align 4
  %9 = alloca ptr, align 8
  %10 = alloca ptr, align 8
  %11 = alloca ptr, align 8
  %12 = alloca ptr, align 8
  %13 = alloca i32, align 4
  %14 = alloca i32, align 4
  %15 = alloca i32, align 4
  %16 = alloca ptr, align 8
  %17 = alloca ptr, align 8
  %18 = alloca ptr, align 8
  %19 = alloca [6 x i8], align 1
  %20 = alloca [1 x %struct.__va_list_tag], align 16
  %21 = alloca i32, align 4
  store ptr %0, ptr %7, align 8, !tbaa !8
  store i32 %1, ptr %8, align 4, !tbaa !4
  store ptr %2, ptr %9, align 8, !tbaa !20
  store ptr %3, ptr %10, align 8, !tbaa !8
  store ptr %4, ptr %11, align 8, !tbaa !8
  store ptr %5, ptr %12, align 8, !tbaa !8
  call void @llvm.lifetime.start.p0(i64 4, ptr %13) #6
  call void @llvm.lifetime.start.p0(i64 4, ptr %14) #6
  call void @llvm.lifetime.start.p0(i64 4, ptr %15) #6
  call void @llvm.lifetime.start.p0(i64 8, ptr %16) #6
  call void @llvm.lifetime.start.p0(i64 8, ptr %17) #6
  call void @llvm.lifetime.start.p0(i64 8, ptr %18) #6
  call void @llvm.lifetime.start.p0(i64 6, ptr %19) #6
  call void @llvm.lifetime.start.p0(i64 24, ptr %20) #6
  %22 = getelementptr inbounds [1 x %struct.__va_list_tag], ptr %20, i64 0, i64 0
  call void @llvm.va_start.p0(ptr %22)
  %23 = load ptr, ptr %7, align 8, !tbaa !8
  %24 = load i32, ptr %8, align 4, !tbaa !4
  %25 = sext i32 %24 to i64
  %26 = load ptr, ptr %12, align 8, !tbaa !8
  %27 = getelementptr inbounds [1 x %struct.__va_list_tag], ptr %20, i64 0, i64 0
  %28 = call i32 @vsnprintf(ptr noundef %23, i64 noundef %25, ptr noundef %26, ptr noundef %27) #6
  store i32 %28, ptr %13, align 4, !tbaa !4
  %29 = getelementptr inbounds [1 x %struct.__va_list_tag], ptr %20, i64 0, i64 0
  call void @llvm.va_end.p0(ptr %29)
  %30 = load ptr, ptr %11, align 8, !tbaa !8
  %31 = load ptr, ptr %10, align 8, !tbaa !8
  %32 = ptrtoint ptr %30 to i64
  %33 = ptrtoint ptr %31 to i64
  %34 = sub i64 %32, %33
  %35 = trunc i64 %34 to i32
  %36 = mul nsw i32 %35, 4
  %37 = add nsw i32 %36, 4
  store i32 %37, ptr %14, align 4, !tbaa !4
  %38 = load i32, ptr %13, align 4, !tbaa !4
  %39 = load i32, ptr %14, align 4, !tbaa !4
  %40 = add nsw i32 %38, %39
  %41 = load i32, ptr %8, align 4, !tbaa !4
  %42 = icmp slt i32 %40, %41
  br i1 %42, label %43, label %204

43:                                               ; preds = %6
  %44 = load ptr, ptr %7, align 8, !tbaa !8
  %45 = call ptr @strcat(ptr noundef %44, ptr noundef @.str.81) #6
  %46 = load ptr, ptr %7, align 8, !tbaa !8
  %47 = load ptr, ptr %7, align 8, !tbaa !8
  %48 = call i32 @onigenc_str_bytelen_null(ptr noundef @OnigEncodingASCII, ptr noundef %47)
  %49 = sext i32 %48 to i64
  %50 = getelementptr inbounds i8, ptr %46, i64 %49
  store ptr %50, ptr %17, align 8, !tbaa !8
  %51 = load ptr, ptr %10, align 8, !tbaa !8
  store ptr %51, ptr %16, align 8, !tbaa !8
  br label %52

52:                                               ; preds = %199, %43
  %53 = load ptr, ptr %16, align 8, !tbaa !8
  %54 = load ptr, ptr %11, align 8, !tbaa !8
  %55 = icmp ult ptr %53, %54
  br i1 %55, label %56, label %200

56:                                               ; preds = %52
  %57 = load ptr, ptr %9, align 8, !tbaa !20
  %58 = getelementptr inbounds nuw %struct.OnigEncodingTypeST, ptr %57, i32 0, i32 0
  %59 = load ptr, ptr %58, align 8, !tbaa !26
  %60 = load ptr, ptr %16, align 8, !tbaa !8
  %61 = call i32 %59(ptr noundef %60)
  %62 = icmp ne i32 %61, 1
  br i1 %62, label %63, label %112

63:                                               ; preds = %56
  %64 = load ptr, ptr %9, align 8, !tbaa !20
  %65 = getelementptr inbounds nuw %struct.OnigEncodingTypeST, ptr %64, i32 0, i32 0
  %66 = load ptr, ptr %65, align 8, !tbaa !26
  %67 = load ptr, ptr %16, align 8, !tbaa !8
  %68 = call i32 %66(ptr noundef %67)
  store i32 %68, ptr %15, align 4, !tbaa !4
  %69 = load ptr, ptr %9, align 8, !tbaa !20
  %70 = getelementptr inbounds nuw %struct.OnigEncodingTypeST, ptr %69, i32 0, i32 3
  %71 = load i32, ptr %70, align 4, !tbaa !23
  %72 = icmp eq i32 %71, 1
  br i1 %72, label %73, label %85

73:                                               ; preds = %63
  br label %74

74:                                               ; preds = %78, %73
  %75 = load i32, ptr %15, align 4, !tbaa !4
  %76 = add nsw i32 %75, -1
  store i32 %76, ptr %15, align 4, !tbaa !4
  %77 = icmp sgt i32 %75, 0
  br i1 %77, label %78, label %84

78:                                               ; preds = %74
  %79 = load ptr, ptr %16, align 8, !tbaa !8
  %80 = getelementptr inbounds nuw i8, ptr %79, i32 1
  store ptr %80, ptr %16, align 8, !tbaa !8
  %81 = load i8, ptr %79, align 1, !tbaa !17
  %82 = load ptr, ptr %17, align 8, !tbaa !8
  %83 = getelementptr inbounds nuw i8, ptr %82, i32 1
  store ptr %83, ptr %17, align 8, !tbaa !8
  store i8 %81, ptr %82, align 1, !tbaa !17
  br label %74, !llvm.loop !28

84:                                               ; preds = %74
  br label %111

85:                                               ; preds = %63
  call void @llvm.lifetime.start.p0(i64 4, ptr %21) #6
  br label %86

86:                                               ; preds = %109, %85
  %87 = load i32, ptr %15, align 4, !tbaa !4
  %88 = add nsw i32 %87, -1
  store i32 %88, ptr %15, align 4, !tbaa !4
  %89 = icmp sgt i32 %87, 0
  br i1 %89, label %90, label %110

90:                                               ; preds = %86
  %91 = getelementptr inbounds [6 x i8], ptr %19, i64 0, i64 0
  %92 = load ptr, ptr %16, align 8, !tbaa !8
  %93 = getelementptr inbounds nuw i8, ptr %92, i32 1
  store ptr %93, ptr %16, align 8, !tbaa !8
  %94 = load i8, ptr %92, align 1, !tbaa !17
  %95 = zext i8 %94 to i32
  call void @sprint_byte_with_x(ptr noundef %91, i32 noundef %95)
  %96 = getelementptr inbounds [6 x i8], ptr %19, i64 0, i64 0
  %97 = call i32 @onigenc_str_bytelen_null(ptr noundef @OnigEncodingASCII, ptr noundef %96)
  store i32 %97, ptr %21, align 4, !tbaa !4
  %98 = getelementptr inbounds [6 x i8], ptr %19, i64 0, i64 0
  store ptr %98, ptr %18, align 8, !tbaa !8
  br label %99

99:                                               ; preds = %103, %90
  %100 = load i32, ptr %21, align 4, !tbaa !4
  %101 = add nsw i32 %100, -1
  store i32 %101, ptr %21, align 4, !tbaa !4
  %102 = icmp sgt i32 %100, 0
  br i1 %102, label %103, label %109

103:                                              ; preds = %99
  %104 = load ptr, ptr %18, align 8, !tbaa !8
  %105 = getelementptr inbounds nuw i8, ptr %104, i32 1
  store ptr %105, ptr %18, align 8, !tbaa !8
  %106 = load i8, ptr %104, align 1, !tbaa !17
  %107 = load ptr, ptr %17, align 8, !tbaa !8
  %108 = getelementptr inbounds nuw i8, ptr %107, i32 1
  store ptr %108, ptr %17, align 8, !tbaa !8
  store i8 %106, ptr %107, align 1, !tbaa !17
  br label %99, !llvm.loop !29

109:                                              ; preds = %99
  br label %86, !llvm.loop !30

110:                                              ; preds = %86
  call void @llvm.lifetime.end.p0(i64 4, ptr %21) #6
  br label %111

111:                                              ; preds = %110, %84
  br label %199

112:                                              ; preds = %56
  %113 = load ptr, ptr %16, align 8, !tbaa !8
  %114 = load i8, ptr %113, align 1, !tbaa !17
  %115 = zext i8 %114 to i32
  %116 = icmp eq i32 %115, 92
  br i1 %116, label %117, label %139

117:                                              ; preds = %112
  %118 = load ptr, ptr %16, align 8, !tbaa !8
  %119 = getelementptr inbounds nuw i8, ptr %118, i32 1
  store ptr %119, ptr %16, align 8, !tbaa !8
  %120 = load i8, ptr %118, align 1, !tbaa !17
  %121 = load ptr, ptr %17, align 8, !tbaa !8
  %122 = getelementptr inbounds nuw i8, ptr %121, i32 1
  store ptr %122, ptr %17, align 8, !tbaa !8
  store i8 %120, ptr %121, align 1, !tbaa !17
  %123 = load ptr, ptr %9, align 8, !tbaa !20
  %124 = getelementptr inbounds nuw %struct.OnigEncodingTypeST, ptr %123, i32 0, i32 0
  %125 = load ptr, ptr %124, align 8, !tbaa !26
  %126 = load ptr, ptr %16, align 8, !tbaa !8
  %127 = call i32 %125(ptr noundef %126)
  store i32 %127, ptr %15, align 4, !tbaa !4
  br label %128

128:                                              ; preds = %132, %117
  %129 = load i32, ptr %15, align 4, !tbaa !4
  %130 = add nsw i32 %129, -1
  store i32 %130, ptr %15, align 4, !tbaa !4
  %131 = icmp sgt i32 %129, 0
  br i1 %131, label %132, label %138

132:                                              ; preds = %128
  %133 = load ptr, ptr %16, align 8, !tbaa !8
  %134 = getelementptr inbounds nuw i8, ptr %133, i32 1
  store ptr %134, ptr %16, align 8, !tbaa !8
  %135 = load i8, ptr %133, align 1, !tbaa !17
  %136 = load ptr, ptr %17, align 8, !tbaa !8
  %137 = getelementptr inbounds nuw i8, ptr %136, i32 1
  store ptr %137, ptr %17, align 8, !tbaa !8
  store i8 %135, ptr %136, align 1, !tbaa !17
  br label %128, !llvm.loop !31

138:                                              ; preds = %128
  br label %198

139:                                              ; preds = %112
  %140 = load ptr, ptr %16, align 8, !tbaa !8
  %141 = load i8, ptr %140, align 1, !tbaa !17
  %142 = zext i8 %141 to i32
  %143 = icmp eq i32 %142, 47
  br i1 %143, label %144, label %152

144:                                              ; preds = %139
  %145 = load ptr, ptr %17, align 8, !tbaa !8
  %146 = getelementptr inbounds nuw i8, ptr %145, i32 1
  store ptr %146, ptr %17, align 8, !tbaa !8
  store i8 92, ptr %145, align 1, !tbaa !17
  %147 = load ptr, ptr %16, align 8, !tbaa !8
  %148 = getelementptr inbounds nuw i8, ptr %147, i32 1
  store ptr %148, ptr %16, align 8, !tbaa !8
  %149 = load i8, ptr %147, align 1, !tbaa !17
  %150 = load ptr, ptr %17, align 8, !tbaa !8
  %151 = getelementptr inbounds nuw i8, ptr %150, i32 1
  store ptr %151, ptr %17, align 8, !tbaa !8
  store i8 %149, ptr %150, align 1, !tbaa !17
  br label %197

152:                                              ; preds = %139
  %153 = load ptr, ptr %9, align 8, !tbaa !20
  %154 = getelementptr inbounds nuw %struct.OnigEncodingTypeST, ptr %153, i32 0, i32 12
  %155 = load ptr, ptr %154, align 8, !tbaa !32
  %156 = load ptr, ptr %16, align 8, !tbaa !8
  %157 = load i8, ptr %156, align 1, !tbaa !17
  %158 = zext i8 %157 to i32
  %159 = call i32 %155(i32 noundef %158, i32 noundef 7)
  %160 = icmp ne i32 %159, 0
  br i1 %160, label %190, label %161

161:                                              ; preds = %152
  %162 = load ptr, ptr %9, align 8, !tbaa !20
  %163 = getelementptr inbounds nuw %struct.OnigEncodingTypeST, ptr %162, i32 0, i32 12
  %164 = load ptr, ptr %163, align 8, !tbaa !32
  %165 = load ptr, ptr %16, align 8, !tbaa !8
  %166 = load i8, ptr %165, align 1, !tbaa !17
  %167 = zext i8 %166 to i32
  %168 = call i32 %164(i32 noundef %167, i32 noundef 9)
  %169 = icmp ne i32 %168, 0
  br i1 %169, label %190, label %170

170:                                              ; preds = %161
  %171 = getelementptr inbounds [6 x i8], ptr %19, i64 0, i64 0
  %172 = load ptr, ptr %16, align 8, !tbaa !8
  %173 = getelementptr inbounds nuw i8, ptr %172, i32 1
  store ptr %173, ptr %16, align 8, !tbaa !8
  %174 = load i8, ptr %172, align 1, !tbaa !17
  %175 = zext i8 %174 to i32
  call void @sprint_byte_with_x(ptr noundef %171, i32 noundef %175)
  %176 = getelementptr inbounds [6 x i8], ptr %19, i64 0, i64 0
  %177 = call i32 @onigenc_str_bytelen_null(ptr noundef @OnigEncodingASCII, ptr noundef %176)
  store i32 %177, ptr %15, align 4, !tbaa !4
  %178 = getelementptr inbounds [6 x i8], ptr %19, i64 0, i64 0
  store ptr %178, ptr %18, align 8, !tbaa !8
  br label %179

179:                                              ; preds = %183, %170
  %180 = load i32, ptr %15, align 4, !tbaa !4
  %181 = add nsw i32 %180, -1
  store i32 %181, ptr %15, align 4, !tbaa !4
  %182 = icmp sgt i32 %180, 0
  br i1 %182, label %183, label %189

183:                                              ; preds = %179
  %184 = load ptr, ptr %18, align 8, !tbaa !8
  %185 = getelementptr inbounds nuw i8, ptr %184, i32 1
  store ptr %185, ptr %18, align 8, !tbaa !8
  %186 = load i8, ptr %184, align 1, !tbaa !17
  %187 = load ptr, ptr %17, align 8, !tbaa !8
  %188 = getelementptr inbounds nuw i8, ptr %187, i32 1
  store ptr %188, ptr %17, align 8, !tbaa !8
  store i8 %186, ptr %187, align 1, !tbaa !17
  br label %179, !llvm.loop !33

189:                                              ; preds = %179
  br label %196

190:                                              ; preds = %161, %152
  %191 = load ptr, ptr %16, align 8, !tbaa !8
  %192 = getelementptr inbounds nuw i8, ptr %191, i32 1
  store ptr %192, ptr %16, align 8, !tbaa !8
  %193 = load i8, ptr %191, align 1, !tbaa !17
  %194 = load ptr, ptr %17, align 8, !tbaa !8
  %195 = getelementptr inbounds nuw i8, ptr %194, i32 1
  store ptr %195, ptr %17, align 8, !tbaa !8
  store i8 %193, ptr %194, align 1, !tbaa !17
  br label %196

196:                                              ; preds = %190, %189
  br label %197

197:                                              ; preds = %196, %144
  br label %198

198:                                              ; preds = %197, %138
  br label %199

199:                                              ; preds = %198, %111
  br label %52, !llvm.loop !34

200:                                              ; preds = %52
  %201 = load ptr, ptr %17, align 8, !tbaa !8
  %202 = getelementptr inbounds nuw i8, ptr %201, i32 1
  store ptr %202, ptr %17, align 8, !tbaa !8
  store i8 47, ptr %201, align 1, !tbaa !17
  %203 = load ptr, ptr %17, align 8, !tbaa !8
  store i8 0, ptr %203, align 1, !tbaa !17
  br label %204

204:                                              ; preds = %200, %6
  call void @llvm.lifetime.end.p0(i64 24, ptr %20) #6
  call void @llvm.lifetime.end.p0(i64 6, ptr %19) #6
  call void @llvm.lifetime.end.p0(i64 8, ptr %18) #6
  call void @llvm.lifetime.end.p0(i64 8, ptr %17) #6
  call void @llvm.lifetime.end.p0(i64 8, ptr %16) #6
  call void @llvm.lifetime.end.p0(i64 4, ptr %15) #6
  call void @llvm.lifetime.end.p0(i64 4, ptr %14) #6
  call void @llvm.lifetime.end.p0(i64 4, ptr %13) #6
  ret void
}